; Function Attrs: nounwind uwtable
define internal range(i32 0, 2) i32 @chacha20_set_ctx_params(ptr readnone captures(none) %0, ptr noundef %1) #0 {
  %3 = alloca i64, align 8
  call void @llvm.lifetime.start.p0(i64 8, ptr nonnull %3) #4
  %4 = icmp eq ptr %1, null
  br i1 %4, label %ossl_param_is_empty.exit.thread, label %ossl_param_is_empty.exit

ossl_param_is_empty.exit:                         ; preds = %2
  %5 = load ptr, ptr %1, align 8, !tbaa !16
  %.not = icmp eq ptr %5, null
  br i1 %.not, label %ossl_param_is_empty.exit.thread, label %6

6:                                                ; preds = %ossl_param_is_empty.exit
  %7 = tail call ptr @OSSL_PARAM_locate_const(ptr noundef nonnull %1, ptr noundef nonnull @.str) #4
  %.not9 = icmp eq ptr %7, null
  br i1 %.not9, label %12, label %8

8:                                                ; preds = %6
  %9 = call i32 @OSSL_PARAM_get_size_t(ptr noundef nonnull %7, ptr noundef nonnull %3) #4
  %.not10 = icmp eq i32 %9, 0
  br i1 %.not10, label %ossl_param_is_empty.exit.thread.sink.split, label %10

10:                                               ; preds = %8
  %11 = load i64, ptr %3, align 8, !tbaa !18
  %.not11 = icmp eq i64 %11, 32
  br i1 %.not11, label %12, label %ossl_param_is_empty.exit.thread.sink.split

12:                                               ; preds = %10, %6
  %13 = call ptr @OSSL_PARAM_locate_const(ptr noundef nonnull %1, ptr noundef nonnull @.str.2) #4
  %.not12 = icmp eq ptr %13, null
  br i1 %.not12, label %ossl_param_is_empty.exit.thread, label %14

14:                                               ; preds = %12
  %15 = call i32 @OSSL_PARAM_get_size_t(ptr noundef nonnull %13, ptr noundef nonnull %3) #4
  %.not13 = icmp eq i32 %15, 0
  br i1 %.not13, label %ossl_param_is_empty.exit.thread.sink.split, label %16

16:                                               ; preds = %14
  %17 = load i64, ptr %3, align 8, !tbaa !18
  %.not14 = icmp eq i64 %17, 16
  br i1 %.not14, label %ossl_param_is_empty.exit.thread, label %ossl_param_is_empty.exit.thread.sink.split

ossl_param_is_empty.exit.thread.sink.split:       ; preds = %16, %14, %10, %8
  %.sink16 = phi i32 [ 135, %8 ], [ 139, %10 ], [ 146, %14 ], [ 150, %16 ]
  %.sink = phi i32 [ 103, %8 ], [ 105, %10 ], [ 103, %14 ], [ 109, %16 ]
  call void @ERR_new() #4
  call void @ERR_set_debug(ptr noundef nonnull @.str.1, i32 noundef %.sink16, ptr noundef nonnull @__func__.chacha20_set_ctx_params) #4
  call void (i32, i32, ptr, ...) @ERR_set_error(i32 noundef 57, i32 noundef %.sink, ptr noundef null) #4
  br label %ossl_param_is_empty.exit.thread

ossl_param_is_empty.exit.thread:                  ; preds = %ossl_param_is_empty.exit.thread.sink.split, %2, %12, %16, %ossl_param_is_empty.exit
  %.0 = phi i32 [ 1, %ossl_param_is_empty.exit ], [ 1, %16 ], [ 1, %12 ], [ 1, %2 ], [ 0, %ossl_param_is_empty.exit.thread.sink.split ]
  call void @llvm.lifetime.end.p0(i64 8, ptr nonnull %3) #4
  ret i32 %.0
}